target datalayout = "e-m:e-p270:32:32-p271:32:32-p272:64:64-i64:64-i128:128-f80:128-n8:16:32:64-S128"
target triple = "x86_64-pc-linux-gnu"

%"class.boost::archive::archive_exception" = type <{ %"class.std::exception", [128 x i8], i32, [4 x i8] }>
%"class.std::exception" = type { ptr }

; Function Attrs: mustprogress nounwind uwtable
define noundef i32 @_ZN5boost7archive17archive_exception6appendEjPKc(ptr noundef nonnull align 8 dereferenceable(140) %0, i32 noundef %1, ptr noundef %2) #0 align 2 {
  %4 = alloca ptr, align 8
  %5 = alloca i32, align 4
  %6 = alloca ptr, align 8
  %7 = alloca i8, align 1
  %8 = alloca i32, align 4
  store ptr %0, ptr %4, align 8, !tbaa !3
  store i32 %1, ptr %5, align 4, !tbaa !7
  store ptr %2, ptr %6, align 8, !tbaa !3
  %9 = load ptr, ptr %4, align 8
  br label %10

10:                                               ; preds = %31, %3
  %11 = load i32, ptr %5, align 4, !tbaa !7
  %12 = zext i32 %11 to i64
  %13 = icmp ult i64 %12, 127
  br i1 %13, label %14, label %32

14:                                               ; preds = %10
  call void @llvm.lifetime.start.p0(i64 1, ptr %7) #6
  %15 = load ptr, ptr %6, align 8, !tbaa !3
  %16 = getelementptr inbounds nuw i8, ptr %15, i32 1
  store ptr %16, ptr %6, align 8, !tbaa !3
  %17 = load i8, ptr %15, align 1, !tbaa !9
  store i8 %17, ptr %7, align 1, !tbaa !9
  %18 = load i8, ptr %7, align 1, !tbaa !9
  %19 = sext i8 %18 to i32
  %20 = icmp eq i32 0, %19
  br i1 %20, label %21, label %22

21:                                               ; preds = %14
  store i32 3, ptr %8, align 4
  br label %29

22:                                               ; preds = %14
  %23 = load i8, ptr %7, align 1, !tbaa !9
  %24 = getelementptr inbounds nuw %"class.boost::archive::archive_exception", ptr %9, i32 0, i32 1
  %25 = load i32, ptr %5, align 4, !tbaa !7
  %26 = add i32 %25, 1
  store i32 %26, ptr %5, align 4, !tbaa !7
  %27 = zext i32 %25 to i64
  %28 = getelementptr inbounds nuw [128 x i8], ptr %24, i64 0, i64 %27
  store i8 %23, ptr %28, align 1, !tbaa !9
  store i32 0, ptr %8, align 4
  br label %29

29:                                               ; preds = %22, %21
  call void @llvm.lifetime.end.p0(i64 1, ptr %7) #6
  %30 = load i32, ptr %8, align 4
  switch i32 %30, label %38 [
    i32 0, label %31
    i32 3, label %32
  ]

31:                                               ; preds = %29
  br label %10, !llvm.loop !10

32:                                               ; preds = %29, %10
  %33 = getelementptr inbounds nuw %"class.boost::archive::archive_exception", ptr %9, i32 0, i32 1
  %34 = load i32, ptr %5, align 4, !tbaa !7
  %35 = zext i32 %34 to i64
  %36 = getelementptr inbounds nuw [128 x i8], ptr %33, i64 0, i64 %35
  store i8 0, ptr %36, align 1, !tbaa !9
  %37 = load i32, ptr %5, align 4, !tbaa !7
  ret i32 %37

38:                                               ; preds = %29
  unreachable
}