; Function Attrs: mustprogress nofree norecurse nosync nounwind memory(argmem: readwrite) uwtable
define noundef i32 @_ZN5boost7archive17archive_exception6appendEjPKc(ptr nocapture noundef nonnull writeonly align 8 dereferenceable(140) %0, i32 noundef %1, ptr nocapture noundef readonly %2) local_unnamed_addr #0 align 2 {
  %4 = icmp ult i32 %1, 127
  br i1 %4, label %.lr.ph, label %.thread

.lr.ph:                                           ; preds = %3
  %5 = getelementptr inbounds nuw i8, ptr %0, i64 8
  %6 = zext nneg i32 %1 to i64
  br label %7

7:                                                ; preds = %.lr.ph, %10
  %indvars.iv = phi i64 [ %6, %.lr.ph ], [ %indvars.iv.next, %10 ]
  %.0914 = phi ptr [ %2, %.lr.ph ], [ %11, %10 ]
  %8 = load i8, ptr %.0914, align 1, !tbaa !3
  %9 = icmp eq i8 %8, 0
  br i1 %9, label %.thread.loopexit.split.loop.exit, label %10

10:                                               ; preds = %7
  %11 = getelementptr inbounds nuw i8, ptr %.0914, i64 1
  %indvars.iv.next = add nuw nsw i64 %indvars.iv, 1
  %12 = getelementptr inbounds nuw [128 x i8], ptr %5, i64 0, i64 %indvars.iv
  store i8 %8, ptr %12, align 1, !tbaa !3
  %13 = and i64 %indvars.iv.next, 4294967295
  %exitcond.not = icmp eq i64 %13, 127
  br i1 %exitcond.not, label %.thread, label %7

.thread.loopexit.split.loop.exit:                 ; preds = %7
  %14 = trunc nuw nsw i64 %indvars.iv to i32
  br label %.thread

.thread:                                          ; preds = %10, %.thread.loopexit.split.loop.exit, %3
  %.08.lcssa = phi i32 [ %1, %3 ], [ %14, %.thread.loopexit.split.loop.exit ], [ 127, %10 ]
  %15 = getelementptr inbounds nuw i8, ptr %0, i64 8
  %16 = zext i32 %.08.lcssa to i64
  %17 = getelementptr inbounds nuw [128 x i8], ptr %15, i64 0, i64 %16
  store i8 0, ptr %17, align 1, !tbaa !3
  ret i32 %.08.lcssa
}